__Z12CYStartsWithRK12CYUTF8StringS1_
__Z16CYLexerHighlightPKcmRNSt3__113basic_ostreamIcNS1_11char_traitsIcEEEEb
__Z16CYPoolUTF8StringR6CYPoolRKNSt3__112basic_stringIcNS1_11char_traitsIcEENS1_9allocatorIcEEEE
__Z7CYThrowPKcz
__ZN11CYPoolErrorC1EPKc
__ZN11CYPoolErrorC1EPKcP13__va_list_tag
__ZN11CYPoolErrorC1EPKcz
__ZN11CYPoolErrorC1ERKS_
__ZN11CYPoolErrorC2EPKc
__ZN11CYPoolErrorC2EPKcP13__va_list_tag
__ZN11CYPoolErrorC2EPKcz
__ZN11CYPoolErrorC2ERKS_
__ZN8CYDriver11ScannerInitEv
__ZN8CYDriver12PopConditionEv
__ZN8CYDriver12SetConditionENS_9ConditionE
__ZN8CYDriver13PushConditionENS_9ConditionE
__ZN8CYDriver14ScannerDestroyEv
__ZN8CYDriver5ParseE6CYMark
__ZN8CYDriver7ReplaceER9CYOptions
__ZN8CYDriver7WarningERK10CYLocationPKc
__ZN8CYDriver8SetRegExEb
__ZN8CYDriverC1ER6CYPoolRNSt3__115basic_streambufIcNS2_11char_traitsIcEEEERKNS2_12basic_stringIcS5_NS2_9allocatorIcEEEE
__ZN8CYDriverC2ER6CYPoolRNSt3__115basic_streambufIcNS2_11char_traitsIcEEEERKNS2_12basic_stringIcS5_NS2_9allocatorIcEEEE
__ZN8CYDriverD1Ev
__ZN8CYDriverD2Ev
__ZNK11CYPoolError11PoolCStringER6CYPool
__ZTI11CYException
__ZTI11CYPoolError
